; Function Attrs: mustprogress uwtable
define dso_local void @_ZNK21btUniformScalingShape21calculateLocalInertiaEfR9btVector3(ptr nocapture noundef nonnull readonly align 8 dereferenceable(44) %this, float noundef %mass, ptr nocapture noundef nonnull writeonly align 4 dereferenceable(16) %inertia) unnamed_addr #4 align 2 {
entry:
  %tmpInertia = alloca %class.btVector3, align 8
  %m_childConvexShape = getelementptr inbounds i8, ptr %this, i64 32
  %0 = load ptr, ptr %m_childConvexShape, align 8
  %vtable = load ptr, ptr %0, align 8
  %vfn = getelementptr inbounds i8, ptr %vtable, i64 64
  %1 = load ptr, ptr %vfn, align 8
  call void %1(ptr noundef nonnull align 8 dereferenceable(32) %0, float noundef %mass, ptr noundef nonnull align 4 dereferenceable(16) %tmpInertia)
  %m_uniformScalingFactor = getelementptr inbounds i8, ptr %this, i64 40
  %2 = load float, ptr %m_uniformScalingFactor, align 8
  %3 = load <2 x float>, ptr %tmpInertia, align 8
  %4 = insertelement <2 x float> poison, float %2, i64 0
  %5 = shufflevector <2 x float> %4, <2 x float> poison, <2 x i32> zeroinitializer
  %6 = fmul <2 x float> %5, %3
  %arrayidx7.i = getelementptr inbounds i8, ptr %tmpInertia, i64 8
  %7 = load float, ptr %arrayidx7.i, align 8
  %mul8.i = fmul float %2, %7
  %retval.sroa.3.12.vec.insert.i = insertelement <2 x float> <float poison, float 0.000000e+00>, float %mul8.i, i64 0
  store <2 x float> %6, ptr %inertia, align 4
  %ref.tmp.sroa.2.0..sroa_idx = getelementptr inbounds i8, ptr %inertia, i64 8
  store <2 x float> %retval.sroa.3.12.vec.insert.i, ptr %ref.tmp.sroa.2.0..sroa_idx, align 4
  ret void
}